target datalayout = "e-m:e-p270:32:32-p271:32:32-p272:64:64-i64:64-i128:128-f80:128-n8:16:32:64-S128"
target triple = "x86_64-pc-linux-gnu"

%struct._object = type { %union.anon, ptr }
%union.anon = type { i64 }
%struct.anon = type { i32, i32 }

; Function Attrs: alwaysinline nounwind uwtable
define internal i32 @_Py_IsImmortal(ptr noundef %0) #4 {
  %2 = alloca ptr, align 8
  store ptr %0, ptr %2, align 8, !tbaa !4
  %3 = load ptr, ptr %2, align 8, !tbaa !4
  %4 = getelementptr inbounds nuw %struct._object, ptr %3, i32 0, i32 0
  %5 = getelementptr inbounds nuw %struct.anon, ptr %4, i32 0, i32 0
  %6 = load i32, ptr %5, align 8, !tbaa !29
  %7 = icmp slt i32 %6, 0
  %8 = zext i1 %7 to i32
  ret i32 %8
}

; Function Attrs: alwaysinline nounwind uwtable
define internal void @Py_DECREF(ptr noundef %0) #4 {
  %2 = alloca ptr, align 8
  store ptr %0, ptr %2, align 8, !tbaa !4
  %3 = load ptr, ptr %2, align 8, !tbaa !4
  %4 = call i32 @_Py_IsImmortal(ptr noundef %3)
  %5 = icmp ne i32 %4, 0
  br i1 %5, label %6, label %7

6:                                                ; preds = %1
  br label %16

7:                                                ; preds = %1
  %8 = load ptr, ptr %2, align 8, !tbaa !4
  %9 = getelementptr inbounds nuw %struct._object, ptr %8, i32 0, i32 0
  %10 = getelementptr inbounds nuw %struct.anon, ptr %9, i32 0, i32 0
  %11 = load i32, ptr %10, align 8, !tbaa !29
  %12 = add i32 %11, -1
  store i32 %12, ptr %10, align 8, !tbaa !29
  %13 = icmp eq i32 %12, 0
  br i1 %13, label %14, label %16

14:                                               ; preds = %7
  %15 = load ptr, ptr %2, align 8, !tbaa !4
  call void @_Py_Dealloc(ptr noundef %15)
  br label %16

16:                                               ; preds = %6, %14, %7
  ret void
}

; Function Attrs: nounwind uwtable
define internal ptr @memoryview_count(ptr noundef %0, ptr noundef %1) #0 {
  %3 = alloca ptr, align 8
  %4 = alloca ptr, align 8
  %5 = alloca ptr, align 8
  %6 = alloca ptr, align 8
  %7 = alloca i32, align 4
  %8 = alloca i64, align 8
  %9 = alloca ptr, align 8
  %10 = alloca i32, align 4
  store ptr %0, ptr %4, align 8, !tbaa !9
  store ptr %1, ptr %5, align 8, !tbaa !4
  call void @llvm.lifetime.start.p0(i64 8, ptr %6) #9
  %11 = load ptr, ptr %4, align 8, !tbaa !9
  %12 = call ptr @PyObject_GetIter(ptr noundef %11)
  store ptr %12, ptr %6, align 8, !tbaa !4
  %13 = load ptr, ptr %6, align 8, !tbaa !4
  %14 = icmp eq ptr %13, null
  br i1 %14, label %15, label %16

15:                                               ; preds = %2
  store ptr null, ptr %3, align 8
  store i32 1, ptr %7, align 4
  br label %59

16:                                               ; preds = %2
  call void @llvm.lifetime.start.p0(i64 8, ptr %8) #9
  store i64 0, ptr %8, align 8, !tbaa !23
  call void @llvm.lifetime.start.p0(i64 8, ptr %9) #9
  store ptr null, ptr %9, align 8, !tbaa !4
  br label %17

17:                                               ; preds = %53, %30, %16
  %18 = load ptr, ptr %6, align 8, !tbaa !4
  %19 = call i32 @PyIter_NextItem(ptr noundef %18, ptr noundef %9)
  %20 = icmp ne i32 %19, 0
  br i1 %20, label %21, label %54

21:                                               ; preds = %17
  %22 = load ptr, ptr %9, align 8, !tbaa !4
  %23 = icmp eq ptr %22, null
  br i1 %23, label %24, label %26

24:                                               ; preds = %21
  %25 = load ptr, ptr %6, align 8, !tbaa !4
  call void @Py_DECREF(ptr noundef %25)
  store ptr null, ptr %3, align 8
  store i32 1, ptr %7, align 4
  br label %58

26:                                               ; preds = %21
  %27 = load ptr, ptr %9, align 8, !tbaa !4
  %28 = load ptr, ptr %5, align 8, !tbaa !4
  %29 = icmp eq ptr %27, %28
  br i1 %29, label %30, label %34

30:                                               ; preds = %26
  %31 = load ptr, ptr %9, align 8, !tbaa !4
  call void @Py_DECREF(ptr noundef %31)
  %32 = load i64, ptr %8, align 8, !tbaa !23
  %33 = add i64 %32, 1
  store i64 %33, ptr %8, align 8, !tbaa !23
  br label %17, !llvm.loop !192

34:                                               ; preds = %26
  call void @llvm.lifetime.start.p0(i64 4, ptr %10) #9
  %35 = load ptr, ptr %9, align 8, !tbaa !4
  %36 = load ptr, ptr %5, align 8, !tbaa !4
  %37 = call i32 @PyObject_RichCompareBool(ptr noundef %35, ptr noundef %36, i32 noundef 2)
  store i32 %37, ptr %10, align 4, !tbaa !21
  %38 = load ptr, ptr %9, align 8, !tbaa !4
  call void @Py_DECREF(ptr noundef %38)
  %39 = load i32, ptr %10, align 4, !tbaa !21
  %40 = icmp sgt i32 %39, 0
  br i1 %40, label %41, label %44

41:                                               ; preds = %34
  %42 = load i64, ptr %8, align 8, !tbaa !23
  %43 = add i64 %42, 1
  store i64 %43, ptr %8, align 8, !tbaa !23
  br label %50

44:                                               ; preds = %34
  %45 = load i32, ptr %10, align 4, !tbaa !21
  %46 = icmp slt i32 %45, 0
  br i1 %46, label %47, label %49

47:                                               ; preds = %44
  %48 = load ptr, ptr %6, align 8, !tbaa !4
  call void @Py_DECREF(ptr noundef %48)
  store ptr null, ptr %3, align 8
  store i32 1, ptr %7, align 4
  br label %51

49:                                               ; preds = %44
  br label %50

50:                                               ; preds = %49, %41
  store i32 0, ptr %7, align 4
  br label %51

51:                                               ; preds = %50, %47
  call void @llvm.lifetime.end.p0(i64 4, ptr %10) #9
  %52 = load i32, ptr %7, align 4
  switch i32 %52, label %58 [
    i32 0, label %53
  ]

53:                                               ; preds = %51
  br label %17, !llvm.loop !192

54:                                               ; preds = %17
  %55 = load ptr, ptr %6, align 8, !tbaa !4
  call void @Py_DECREF(ptr noundef %55)
  %56 = load i64, ptr %8, align 8, !tbaa !23
  %57 = call ptr @PyLong_FromSsize_t(i64 noundef %56)
  store ptr %57, ptr %3, align 8
  store i32 1, ptr %7, align 4
  br label %58

58:                                               ; preds = %54, %51, %24
  call void @llvm.lifetime.end.p0(i64 8, ptr %9) #9
  call void @llvm.lifetime.end.p0(i64 8, ptr %8) #9
  br label %59

59:                                               ; preds = %58, %15
  call void @llvm.lifetime.end.p0(i64 8, ptr %6) #9
  %60 = load ptr, ptr %3, align 8
  ret ptr %60
}