; Function Attrs: nounwind uwtable
define internal ptr @memoryview_count(ptr noundef %0, ptr noundef %1) #0 {
  %3 = alloca ptr, align 8
  %4 = tail call ptr @PyObject_GetIter(ptr noundef %0) #14
  %5 = icmp eq ptr %4, null
  br i1 %5, label %51, label %6

6:                                                ; preds = %2
  call void @llvm.lifetime.start.p0(i64 8, ptr nonnull %3) #14
  store ptr null, ptr %3, align 8, !tbaa !104
  %7 = call i32 @PyIter_NextItem(ptr noundef nonnull %4, ptr noundef nonnull %3) #14
  %.not38 = icmp eq i32 %7, 0
  br i1 %.not38, label %._crit_edge, label %.lr.ph

.lr.ph:                                           ; preds = %6, %.backedge
  %.01439 = phi i64 [ %.014.be, %.backedge ], [ 0, %6 ]
  %8 = load ptr, ptr %3, align 8, !tbaa !104
  %9 = icmp eq ptr %8, null
  br i1 %9, label %10, label %16

10:                                               ; preds = %.lr.ph
  %11 = load i32, ptr %4, align 8, !tbaa !102
  %.not.i28 = icmp sgt i32 %11, -1
  br i1 %.not.i28, label %12, label %Py_DECREF.exit29

12:                                               ; preds = %10
  %13 = add nsw i32 %11, -1
  store i32 %13, ptr %4, align 8, !tbaa !102
  %14 = icmp eq i32 %13, 0
  br i1 %14, label %15, label %Py_DECREF.exit29

15:                                               ; preds = %12
  call void @_Py_Dealloc(ptr noundef nonnull %4) #14
  br label %Py_DECREF.exit29

16:                                               ; preds = %.lr.ph
  %17 = icmp eq ptr %8, %1
  br i1 %17, label %18, label %26

18:                                               ; preds = %16
  %19 = load i32, ptr %8, align 8, !tbaa !102
  %.not.i26 = icmp sgt i32 %19, -1
  br i1 %.not.i26, label %20, label %Py_DECREF.exit27

20:                                               ; preds = %18
  %21 = add nsw i32 %19, -1
  store i32 %21, ptr %8, align 8, !tbaa !102
  %22 = icmp eq i32 %21, 0
  br i1 %22, label %23, label %Py_DECREF.exit27

23:                                               ; preds = %20
  call void @_Py_Dealloc(ptr noundef nonnull %8) #14
  br label %Py_DECREF.exit27

Py_DECREF.exit27:                                 ; preds = %18, %20, %23
  %24 = add i64 %.01439, 1
  br label %.backedge

.backedge:                                        ; preds = %37, %35, %Py_DECREF.exit27
  %.014.be = phi i64 [ %24, %Py_DECREF.exit27 ], [ %36, %35 ], [ %.01439, %37 ]
  %25 = call i32 @PyIter_NextItem(ptr noundef nonnull %4, ptr noundef nonnull %3) #14
  %.not = icmp eq i32 %25, 0
  br i1 %.not, label %._crit_edge, label %.lr.ph, !llvm.loop !179

26:                                               ; preds = %16
  %27 = call i32 @PyObject_RichCompareBool(ptr noundef nonnull %8, ptr noundef %1, i32 noundef 2) #14
  %28 = load ptr, ptr %3, align 8, !tbaa !104
  %29 = load i32, ptr %28, align 8, !tbaa !102
  %.not.i24 = icmp sgt i32 %29, -1
  br i1 %.not.i24, label %30, label %Py_DECREF.exit25

30:                                               ; preds = %26
  %31 = add nsw i32 %29, -1
  store i32 %31, ptr %28, align 8, !tbaa !102
  %32 = icmp eq i32 %31, 0
  br i1 %32, label %33, label %Py_DECREF.exit25

33:                                               ; preds = %30
  call void @_Py_Dealloc(ptr noundef nonnull %28) #14
  br label %Py_DECREF.exit25

Py_DECREF.exit25:                                 ; preds = %26, %30, %33
  %34 = icmp sgt i32 %27, 0
  br i1 %34, label %35, label %37

35:                                               ; preds = %Py_DECREF.exit25
  %36 = add i64 %.01439, 1
  br label %.backedge

37:                                               ; preds = %Py_DECREF.exit25
  %38 = icmp slt i32 %27, 0
  br i1 %38, label %39, label %.backedge

39:                                               ; preds = %37
  %40 = load i32, ptr %4, align 8, !tbaa !102
  %.not.i22 = icmp sgt i32 %40, -1
  br i1 %.not.i22, label %41, label %Py_DECREF.exit29

41:                                               ; preds = %39
  %42 = add nsw i32 %40, -1
  store i32 %42, ptr %4, align 8, !tbaa !102
  %43 = icmp eq i32 %42, 0
  br i1 %43, label %44, label %Py_DECREF.exit29

44:                                               ; preds = %41
  call void @_Py_Dealloc(ptr noundef nonnull %4) #14
  br label %Py_DECREF.exit29

._crit_edge:                                      ; preds = %.backedge, %6
  %.014.lcssa = phi i64 [ 0, %6 ], [ %.014.be, %.backedge ]
  %45 = load i32, ptr %4, align 8, !tbaa !102
  %.not.i = icmp sgt i32 %45, -1
  br i1 %.not.i, label %46, label %Py_DECREF.exit

46:                                               ; preds = %._crit_edge
  %47 = add nsw i32 %45, -1
  store i32 %47, ptr %4, align 8, !tbaa !102
  %48 = icmp eq i32 %47, 0
  br i1 %48, label %49, label %Py_DECREF.exit

49:                                               ; preds = %46
  call void @_Py_Dealloc(ptr noundef nonnull %4) #14
  br label %Py_DECREF.exit

Py_DECREF.exit:                                   ; preds = %._crit_edge, %46, %49
  %50 = call ptr @PyLong_FromSsize_t(i64 noundef %.014.lcssa) #14
  br label %Py_DECREF.exit29

Py_DECREF.exit29:                                 ; preds = %44, %41, %39, %15, %12, %10, %Py_DECREF.exit
  %.2 = phi ptr [ %50, %Py_DECREF.exit ], [ null, %10 ], [ null, %12 ], [ null, %15 ], [ null, %39 ], [ null, %41 ], [ null, %44 ]
  call void @llvm.lifetime.end.p0(i64 8, ptr nonnull %3) #14
  br label %51

51:                                               ; preds = %2, %Py_DECREF.exit29
  %.0 = phi ptr [ %.2, %Py_DECREF.exit29 ], [ null, %2 ]
  ret ptr %.0
}